target datalayout = "e-m:e-p270:32:32-p271:32:32-p272:64:64-i64:64-i128:128-f80:128-n8:16:32:64-S128"
target triple = "x86_64-pc-linux-gnu"

; Function Attrs: nounwind uwtable
define internal i32 @zueci_sjis_u(ptr noundef %0, i32 noundef %1, i32 noundef %2, ptr noundef %3) #0 {
  %5 = alloca i32, align 4
  %6 = alloca ptr, align 8
  %7 = alloca i32, align 4
  %8 = alloca i32, align 4
  %9 = alloca ptr, align 8
  %10 = alloca i8, align 1
  %11 = alloca i8, align 1
  %12 = alloca i32, align 4
  %13 = alloca i32, align 4
  store ptr %0, ptr %6, align 8
  store i32 %1, ptr %7, align 4
  store i32 %2, ptr %8, align 4
  store ptr %3, ptr %9, align 8
  %14 = load ptr, ptr %6, align 8
  %15 = getelementptr inbounds i8, ptr %14, i64 0
  %16 = load i8, ptr %15, align 1
  store i8 %16, ptr %10, align 1
  %17 = load i8, ptr %10, align 1
  %18 = zext i8 %17 to i32
  %19 = icmp slt i32 %18, 128
  br i1 %19, label %20, label %56

20:                                               ; preds = %4
  %21 = load i8, ptr %10, align 1
  %22 = zext i8 %21 to i32
  %23 = icmp eq i32 %22, 92
  br i1 %23, label %24, label %35

24:                                               ; preds = %20
  %25 = load i32, ptr %8, align 4
  %26 = and i32 %25, 2
  %27 = icmp ne i32 %26, 0
  br i1 %27, label %28, label %31

28:                                               ; preds = %24
  %29 = load i8, ptr %10, align 1
  %30 = zext i8 %29 to i32
  br label %32

31:                                               ; preds = %24
  br label %32

32:                                               ; preds = %31, %28
  %33 = phi i32 [ %30, %28 ], [ 165, %31 ]
  %34 = load ptr, ptr %9, align 8
  store i32 %33, ptr %34, align 4
  br label %55

35:                                               ; preds = %20
  %36 = load i8, ptr %10, align 1
  %37 = zext i8 %36 to i32
  %38 = icmp eq i32 %37, 126
  br i1 %38, label %39, label %50

39:                                               ; preds = %35
  %40 = load i32, ptr %8, align 4
  %41 = and i32 %40, 2
  %42 = icmp ne i32 %41, 0
  br i1 %42, label %43, label %46

43:                                               ; preds = %39
  %44 = load i8, ptr %10, align 1
  %45 = zext i8 %44 to i32
  br label %47

46:                                               ; preds = %39
  br label %47

47:                                               ; preds = %46, %43
  %48 = phi i32 [ %45, %43 ], [ 8254, %46 ]
  %49 = load ptr, ptr %9, align 8
  store i32 %48, ptr %49, align 4
  br label %54

50:                                               ; preds = %35
  %51 = load i8, ptr %10, align 1
  %52 = zext i8 %51 to i32
  %53 = load ptr, ptr %9, align 8
  store i32 %52, ptr %53, align 4
  br label %54

54:                                               ; preds = %50, %47
  br label %55

55:                                               ; preds = %54, %32
  store i32 1, ptr %5, align 4
  br label %166

56:                                               ; preds = %4
  %57 = load i8, ptr %10, align 1
  %58 = zext i8 %57 to i32
  %59 = icmp sge i32 %58, 161
  br i1 %59, label %60, label %69

60:                                               ; preds = %56
  %61 = load i8, ptr %10, align 1
  %62 = zext i8 %61 to i32
  %63 = icmp sle i32 %62, 223
  br i1 %63, label %64, label %69

64:                                               ; preds = %60
  %65 = load i8, ptr %10, align 1
  %66 = zext i8 %65 to i32
  %67 = add nsw i32 65216, %66
  %68 = load ptr, ptr %9, align 8
  store i32 %67, ptr %68, align 4
  store i32 1, ptr %5, align 4
  br label %166

69:                                               ; preds = %60, %56
  %70 = load i32, ptr %7, align 4
  %71 = icmp ult i32 %70, 2
  br i1 %71, label %92, label %72

72:                                               ; preds = %69
  %73 = load i8, ptr %10, align 1
  %74 = zext i8 %73 to i32
  %75 = icmp eq i32 %74, 128
  br i1 %75, label %92, label %76

76:                                               ; preds = %72
  %77 = load i8, ptr %10, align 1
  %78 = zext i8 %77 to i32
  %79 = icmp eq i32 %78, 160
  br i1 %79, label %92, label %80

80:                                               ; preds = %76
  %81 = load i8, ptr %10, align 1
  %82 = zext i8 %81 to i32
  %83 = icmp sgt i32 %82, 234
  br i1 %83, label %84, label %88

84:                                               ; preds = %80
  %85 = load i8, ptr %10, align 1
  %86 = zext i8 %85 to i32
  %87 = icmp slt i32 %86, 240
  br i1 %87, label %92, label %88

88:                                               ; preds = %84, %80
  %89 = load i8, ptr %10, align 1
  %90 = zext i8 %89 to i32
  %91 = icmp sgt i32 %90, 249
  br i1 %91, label %92, label %93

92:                                               ; preds = %88, %84, %76, %72, %69
  store i32 0, ptr %5, align 4
  br label %166

93:                                               ; preds = %88
  %94 = load ptr, ptr %6, align 8
  %95 = getelementptr inbounds i8, ptr %94, i64 1
  %96 = load i8, ptr %95, align 1
  store i8 %96, ptr %11, align 1
  %97 = load i8, ptr %11, align 1
  %98 = zext i8 %97 to i32
  %99 = icmp slt i32 %98, 64
  br i1 %99, label %108, label %100

100:                                              ; preds = %93
  %101 = load i8, ptr %11, align 1
  %102 = zext i8 %101 to i32
  %103 = icmp eq i32 %102, 127
  br i1 %103, label %108, label %104

104:                                              ; preds = %100
  %105 = load i8, ptr %11, align 1
  %106 = zext i8 %105 to i32
  %107 = icmp sgt i32 %106, 252
  br i1 %107, label %108, label %109

108:                                              ; preds = %104, %100, %93
  store i32 0, ptr %5, align 4
  br label %166

109:                                              ; preds = %104
  %110 = load i8, ptr %10, align 1
  %111 = zext i8 %110 to i32
  %112 = icmp sge i32 %111, 240
  br i1 %112, label %113, label %133

113:                                              ; preds = %109
  %114 = load i8, ptr %10, align 1
  %115 = zext i8 %114 to i32
  %116 = icmp sle i32 %115, 249
  br i1 %116, label %117, label %133

117:                                              ; preds = %113
  %118 = load i8, ptr %10, align 1
  %119 = zext i8 %118 to i32
  %120 = sub nsw i32 %119, 240
  %121 = mul nsw i32 188, %120
  %122 = add nsw i32 57344, %121
  %123 = load i8, ptr %11, align 1
  %124 = zext i8 %123 to i32
  %125 = add nsw i32 %122, %124
  %126 = sub nsw i32 %125, 64
  %127 = load i8, ptr %11, align 1
  %128 = zext i8 %127 to i32
  %129 = icmp sgt i32 %128, 127
  %130 = zext i1 %129 to i32
  %131 = sub nsw i32 %126, %130
  %132 = load ptr, ptr %9, align 8
  store i32 %131, ptr %132, align 4
  store i32 2, ptr %5, align 4
  br label %166

133:                                              ; preds = %113, %109
  %134 = load i8, ptr %10, align 1
  %135 = zext i8 %134 to i32
  %136 = sub nsw i32 %135, 129
  %137 = load i8, ptr %10, align 1
  %138 = zext i8 %137 to i32
  %139 = icmp sgt i32 %138, 160
  %140 = zext i1 %139 to i32
  %141 = mul nsw i32 %140, 64
  %142 = sub nsw i32 %136, %141
  %143 = mul nsw i32 188, %142
  %144 = load i8, ptr %11, align 1
  %145 = zext i8 %144 to i32
  %146 = add nsw i32 %143, %145
  %147 = sub nsw i32 %146, 64
  %148 = load i8, ptr %11, align 1
  %149 = zext i8 %148 to i32
  %150 = icmp sgt i32 %149, 127
  %151 = zext i1 %150 to i32
  %152 = sub nsw i32 %147, %151
  store i32 %152, ptr %12, align 4
  %153 = load i32, ptr %12, align 4
  %154 = icmp slt i32 %153, 7808
  br i1 %154, label %155, label %165

155:                                              ; preds = %133
  %156 = load i32, ptr %12, align 4
  %157 = sext i32 %156 to i64
  %158 = getelementptr inbounds [7808 x i16], ptr @zueci_sjis_mb_u, i64 0, i64 %157
  %159 = load i16, ptr %158, align 2
  %160 = zext i16 %159 to i32
  store i32 %160, ptr %13, align 4
  %161 = icmp ne i32 %160, 0
  br i1 %161, label %162, label %165

162:                                              ; preds = %155
  %163 = load i32, ptr %13, align 4
  %164 = load ptr, ptr %9, align 8
  store i32 %163, ptr %164, align 4
  store i32 2, ptr %5, align 4
  br label %166

165:                                              ; preds = %155, %133
  store i32 0, ptr %5, align 4
  br label %166

166:                                              ; preds = %165, %162, %117, %108, %92, %64, %55
  %167 = load i32, ptr %5, align 4
  ret i32 %167
}