; Function Attrs: mustprogress nofree norecurse nosync nounwind willreturn memory(argmem: readwrite) uwtable
define internal noundef i32 @zueci_sjis_u(ptr nocapture noundef readonly %0, i32 noundef %1, i32 noundef %2, ptr nocapture noundef writeonly %3) #6 {
  %5 = load i8, ptr %0, align 1
  %6 = zext i8 %5 to i32
  %7 = icmp sgt i8 %5, -1
  br i1 %7, label %8, label %15

8:                                                ; preds = %4
  switch i8 %5, label %.sink.split [
    i8 92, label %9
    i8 126, label %12
  ]

9:                                                ; preds = %8
  %10 = and i32 %2, 2
  %.not69 = icmp eq i32 %10, 0
  %11 = select i1 %.not69, i32 165, i32 92
  br label %.sink.split

12:                                               ; preds = %8
  %13 = and i32 %2, 2
  %.not68 = icmp eq i32 %13, 0
  %14 = select i1 %.not68, i32 8254, i32 126
  br label %.sink.split

15:                                               ; preds = %4
  %16 = add nsw i8 %5, 95
  %or.cond = icmp ult i8 %16, 63
  br i1 %or.cond, label %17, label %19

17:                                               ; preds = %15
  %18 = add nuw nsw i32 %6, 65216
  br label %.sink.split

19:                                               ; preds = %15
  %20 = icmp ult i32 %1, 2
  %21 = and i8 %5, -33
  %22 = icmp eq i8 %21, -128
  %or.cond8 = or i1 %20, %22
  br i1 %or.cond8, label %switch.lookup, label %23

23:                                               ; preds = %19
  %24 = icmp ugt i8 %5, -22
  br i1 %24, label %switch.hole_check, label %25

25:                                               ; preds = %switch.hole_check, %23
  %26 = getelementptr inbounds i8, ptr %0, i64 1
  %27 = load i8, ptr %26, align 1
  %28 = zext i8 %27 to i32
  %29 = icmp eq i8 %27, 127
  %30 = add i8 %27, 3
  %31 = icmp ult i8 %30, 67
  %or.cond20 = or i1 %29, %31
  br i1 %or.cond20, label %switch.lookup, label %32

32:                                               ; preds = %25
  %33 = icmp ugt i8 %5, -17
  br i1 %33, label %34, label %41

34:                                               ; preds = %32
  %35 = mul nuw nsw i32 %6, 188
  %36 = ashr i8 %27, 7
  %37 = sext i8 %36 to i32
  %38 = add nuw nsw i32 %35, 12160
  %39 = add nuw nsw i32 %38, %28
  %40 = add nsw i32 %39, %37
  br label %.sink.split

41:                                               ; preds = %32
  %42 = add nsw i32 %6, -129
  %43 = icmp ugt i8 %5, -96
  %.neg = select i1 %43, i32 -64, i32 0
  %44 = add nsw i32 %42, %.neg
  %45 = mul nsw i32 %44, 188
  %46 = ashr i8 %27, 7
  %47 = sext i8 %46 to i32
  %48 = add nsw i32 %45, -64
  %49 = add nsw i32 %48, %28
  %50 = add nsw i32 %49, %47
  %51 = icmp slt i32 %50, 7808
  br i1 %51, label %52, label %switch.lookup

52:                                               ; preds = %41
  %53 = sext i32 %50 to i64
  %54 = getelementptr inbounds [7808 x i16], ptr @zueci_sjis_mb_u, i64 0, i64 %53
  %55 = load i16, ptr %54, align 2
  %.not = icmp eq i16 %55, 0
  br i1 %.not, label %switch.lookup, label %56

56:                                               ; preds = %52
  %57 = zext i16 %55 to i32
  br label %.sink.split

.sink.split:                                      ; preds = %8, %17, %34, %56, %12, %9
  %.sink = phi i32 [ %11, %9 ], [ %14, %12 ], [ %57, %56 ], [ %40, %34 ], [ %18, %17 ], [ %6, %8 ]
  %.0.ph = phi i32 [ 1, %9 ], [ 1, %12 ], [ 2, %56 ], [ 2, %34 ], [ 1, %17 ], [ 1, %8 ]
  store i32 %.sink, ptr %3, align 4
  br label %switch.lookup

switch.hole_check:                                ; preds = %23
  %switch.tableidx = add nsw i8 %5, 21
  %switch.maskindex = zext nneg i8 %switch.tableidx to i32
  %switch.shifted = lshr i32 2064415, %switch.maskindex
  %switch.lobit = trunc i32 %switch.shifted to i1
  br i1 %switch.lobit, label %switch.lookup, label %25

switch.lookup:                                    ; preds = %switch.hole_check, %.sink.split, %41, %52, %25, %19
  %.0 = phi i32 [ 0, %19 ], [ 0, %25 ], [ 0, %52 ], [ 0, %41 ], [ %.0.ph, %.sink.split ], [ 0, %switch.hole_check ]
  ret i32 %.0
}